; Function Attrs: null_pointer_is_valid sspstrong uwtable
define hidden void @nvme_publish_cmd_latency(ptr noundef %0, ptr noundef %1, i32 noundef %2) local_unnamed_addr #0 {
  %4 = alloca %struct.nstime_t, align 8
  call void @llvm.lifetime.start.p0(i64 16, ptr nonnull %4) #10
  %5 = getelementptr inbounds nuw i8, ptr %1, i64 96
  %6 = getelementptr inbounds nuw i8, ptr %1, i64 80
  call void @nstime_delta(ptr noundef nonnull %4, ptr noundef nonnull %5, ptr noundef nonnull %6)
  %7 = call double @nstime_to_msec(ptr noundef nonnull %4)
  %8 = call ptr (ptr, i32, ptr, i32, i32, double, ptr, ...) @proto_tree_add_double_format_value(ptr noundef %0, i32 noundef %2, ptr noundef null, i32 noundef 0, i32 noundef 0, double noundef %7, ptr noundef nonnull @.str.2, double noundef %7)
  %.not.i = icmp eq ptr %8, null
  br i1 %.not.i, label %proto_item_set_generated.exit, label %9

9:                                                ; preds = %3
  %10 = getelementptr inbounds nuw i8, ptr %8, i64 40
  %11 = load ptr, ptr %10, align 8
  %.not5.i = icmp eq ptr %11, null
  br i1 %.not5.i, label %proto_item_set_generated.exit, label %12

12:                                               ; preds = %9
  %13 = getelementptr inbounds nuw i8, ptr %11, i64 28
  %14 = load i32, ptr %13, align 4
  %15 = or i32 %14, 2
  store i32 %15, ptr %13, align 4
  br label %proto_item_set_generated.exit

proto_item_set_generated.exit:                    ; preds = %3, %9, %12
  call void @llvm.lifetime.end.p0(i64 16, ptr nonnull %4) #10
  ret void
}